target datalayout = "e-m:e-p270:32:32-p271:32:32-p272:64:64-i64:64-i128:128-f80:128-n8:16:32:64-S128"
target triple = "x86_64-unknown-linux-gnu"

; Function Attrs: mustprogress uwtable
define internal void @_ZN8facebook5velox6memory12_GLOBAL__N_114NoopArbitrator13reserveMemoryEPNS1_10MemoryPoolEm(ptr noundef nonnull align 8 dereferenceable(72) %this, ptr noundef %pool, i64 noundef %0) unnamed_addr #0 align 2 {
entry:
  %this.addr = alloca ptr, align 8
  %pool.addr = alloca ptr, align 8
  %.addr = alloca i64, align 8
  store ptr %this, ptr %this.addr, align 8
  store ptr %pool, ptr %pool.addr, align 8
  store i64 %0, ptr %.addr, align 8
  %1 = load ptr, ptr %pool.addr, align 8
  %2 = load ptr, ptr %pool.addr, align 8
  %vtable = load ptr, ptr %2, align 8
  %vfn = getelementptr inbounds ptr, ptr %vtable, i64 26
  %3 = load ptr, ptr %vfn, align 8
  %call = call noundef i64 %3(ptr noundef nonnull align 8 dereferenceable(168) %2)
  %vtable2 = load ptr, ptr %1, align 8
  %vfn3 = getelementptr inbounds ptr, ptr %vtable2, i64 36
  %4 = load ptr, ptr %vfn3, align 8
  %call4 = call noundef i64 %4(ptr noundef nonnull align 8 dereferenceable(168) %1, i64 noundef %call) #9
  ret void
}