; Function Attrs: mustprogress uwtable
define internal void @_ZN8facebook5velox6memory12_GLOBAL__N_114NoopArbitrator13reserveMemoryEPNS1_10MemoryPoolEm(ptr nocapture nonnull readnone align 8 %this, ptr noundef %pool, i64 %0) unnamed_addr #0 align 2 {
entry:
  %vtable = load ptr, ptr %pool, align 8
  %vfn = getelementptr inbounds i8, ptr %vtable, i64 208
  %1 = load ptr, ptr %vfn, align 8
  %call = tail call noundef i64 %1(ptr noundef nonnull align 8 dereferenceable(168) %pool)
  %vtable2 = load ptr, ptr %pool, align 8
  %vfn3 = getelementptr inbounds i8, ptr %vtable2, i64 288
  %2 = load ptr, ptr %vfn3, align 8
  %call4 = tail call noundef i64 %2(ptr noundef nonnull align 8 dereferenceable(168) %pool, i64 noundef %call) #32
  ret void
}